(dp0
Vjin@securemail.com
p1
(S'-----BEGIN RSA PRIVATE KEY-----\nMIIEogIBAAKCAQEAvvjyxLZcG/uUScYBEMm/u2ZPI8SNheqR02pVUNoQA7TPitfm\nejiIFB2BQQ2G5lTAUIhyaNyJMyJbeqwc8ZHHXMThy5RJoe1FyFMxuRgjUk+lZZEn\nQojQ5Y6jxAuFrIuA92GjH+gGk7BIQqFbRAONu33XnujOpTtDzikUo98ZpjiLP0BP\njzH1ihBg2FHvlD8emjW1shyjrqdrmCG9gHdzY1C2f6dYD4js0QpOXE9iLU1KpA3D\ntiO/IUqPCQs2S2KaJycvTpUYC1UddWy7crZxyYrKzVTnpHuCouRFmY+i4BxqpuRx\ng7r9YjRYw+uvsWp5oSfm9/l+CvQMruIbrYiTqQIDAQABAoIBABmsyJ7P0aRld3NP\nrpb+OMvOHne1lj1Z4w8kbaH4H00QQxLsoezuqsThjp4bXnabEFwDbDZS6BM63Eeq\n2h1UNxRu19iR8DBYARjErpuu9hi74oW8NSYJ1OP4AGZ8EhW3j7gypUbF4BR9D8n9\nfZKwU57QdWvE6vtl82DFPyQk+4LQPV8QtzU6HpZ4GiiKSVL250zrWO3UBPXGymq5\nOylzZ289DJGBOuVRnvtJyikyeBYoN2UUD7zOZKbLBkBDDokOXas/P6PXZ5i4QpTQ\nkxBNlJ8ZfF8twCJo89MluHSWzwNM487AQP7Xl4DQ3lm/ZdzM56zzHbHy7srDsXFB\nA1AbVp0CgYEAwoUJ3Eg4zrMerSvHMYRZQzgFSJF6+GEs7agjJj8RySPhy+VV+kHW\nVBMeP9qcdipOkmGh49KBHwb2HZ1/hDpaJrIrNEqDuRyjpKzbqR/2zsHwq53TlDng\nM0xQ6XiBbs98EmssyK6/4gtAeXBAt60rHuBe6YQWr1BdOcsrJhGIG8cCgYEA+1Tl\nlVwlAB8u0IGsa69fNdXsgETzhadhcPbVIh3Yz8v0zjq77VE2d3odhgmghanJ4epJ\nGgCR4GyfMwClGF1N3tMugn6tS0myRs6xU2FJRUeinwGnSoVkeiH4kY0wYhWRhhAT\nXPe2jpZeNRP8zEEuhJ/9EPJIxIKsjPTm2p07dQ8CgYAkjtZclSJADr/8MdcdAk+4\nZ2XuzpC676B/BfOdM4tHLzw3kuGGyCrc4D72J0Lynl7n+ftwEtb7mtZUmI4nrsPU\ns/WUvVBmUPCceXRLI9vB3gc6ac4i9IGjgntOdbx1s/8Qgx4GlXkwpYa3jBZNrvkE\ns4yC/LU6u7LZsspoPDFFbwKBgDBweVsjCkKOwAARrgCHKUt/8nf6UhEFZINYH1XW\n+M172q/QpB2mFGBMmdoWiuiYA7/V3sbzKypc5QX4btlWSkbS3tjpv06OYpzBA241\nhuCiYNZShEKZmPbtCzJKSvPsgkKbYI//ciDjHD8Qnh1jxqprB2Q3vgyZvtXf8Ypa\n2XXDAoGAFXcIePo47itPk2MRls5eiffkuLqXh7tCbHYWTgtf7dvDrNN9cQdUz2gA\n5ioaa7l8br4XRch1MCYHjm4kyBtlSOtMmZfqUY1OCFuKkzAWUJs5rOBxDNVqV+ly\nteiBoj7RCDujqRMVk+0jyg8Qy53yLPVaPhOq55EDJtHBdK0oKzU=\n-----END RSA PRIVATE KEY-----'
p2
S'ssh-rsa AAAAB3NzaC1yc2EAAAADAQABAAABAQC++PLEtlwb+5RJxgEQyb+7Zk8jxI2F6pHTalVQ2hADtM+K1+Z6OIgUHYFBDYbmVMBQiHJo3IkzIlt6rBzxkcdcxOHLlEmh7UXIUzG5GCNST6VlkSdCiNDljqPEC4Wsi4D3YaMf6AaTsEhCoVtEA427fdee6M6lO0POKRSj3xmmOIs/QE+PMfWKEGDYUe+UPx6aNbWyHKOup2uYIb2Ad3NjULZ/p1gPiOzRCk5cT2ItTUqkDcO2I78hSo8JCzZLYponJy9OlRgLVR11bLtytnHJisrNVOeke4Ki5EWZj6LgHGqm5HGDuv1iNFjD66+xanmhJ+b3+X4K9Ayu4hutiJOp'
p3
tp4
sVjin2@securemail.com
p5
(S'-----BEGIN RSA PRIVATE KEY-----\nMIIEowIBAAKCAQEA0Uh4FL2+peO1rD/k8q7mtEvBqLX+I1WfhqI9fy+JLb/BjBzq\nHRYJ/FSFD/uVx4+rfHWW5Vma/mUXbQyJVzZamWdLDBQY1D/JewgjGYKhuUbCYfWU\nyv3d9XSC0ptbvo8fp5jXsPRw9TiDmx9lqI5J93WVPsKo3tkdqxT1MWMzZUJ3Q1vM\nKnTzV63XV+TJRBjaWkVA8P5yCPHSPeVCX1A1RL3d49YCYcbTHpcrkWral2xrDXgI\n3EzN9SfADL9pB+n0l9Ggnphjv0IzxGeEVn3C7E9GJvWuAzS64hR2Uj72M09tMYk8\nCwngAOdjICp+YZQhUnDACS/IvNjpQQ5QGQWoUQIDAQABAoIBAHEGlGOPPiFVY05N\ni5ZNQydoKoS1FTV8DpWllVTVFV7xytOi4gUnW+k8tEg3dWK7gr/Kud3PkNeHPSmV\nta62GiPzFyLEz8wBTwz1Dg++7xyizGQfP2aJyI/Bhs27PccigNQAxaw5t6+X/+uM\n/1gS0Humsx2b/5uq4kz9Gpa7now2aMA541pjmDRRSeVCpROCXRM3va4RZ57N10nq\nTzjHjQNo4VULph/e7XMnsTeT5X+otdkrXRBpz85w6UkZsKEQoyHmtKc0w1vqAkVD\nGmWa/8Gf450xAzz5dFNmdoEGCJSFxghg3wuSe1i3Y/gwiouHF+JsOThUl8TyOUVx\nNXxnQ8kCgYEA2geU8OVQLQ5LaTdOyxveEVEByXTnPg6vX98cki6oZa79NJtet5j/\nrcp3IkAqWKlTsPtHt1VmZY29lErMV8Yzzf01FO9pNWYQT1Ae7MHiFC/rt67hxPLF\no7KHXNHXkdv3KWhbC7jVAtkCjRBE3AG8fzAYO4lGRM54IuCvP1frZMcCgYEA9brw\nvOPa0ks5rb5cFYSnvKgTrhC32OKnx0zg1nkUb38ktyCXYhPcpZTHWCV8L3MfNgdc\nD6bRzpo9+ughx3nbuziQYD6O8KliDCdJehvS3AYJVtrfyYsgk14rI23EpBK7NNPD\nRtdPIIOZ7XwyvuouQiShbWw9eUX0HwoQuhBiQicCgYAWCW4kawkPhMJagByWqtpn\nJajok8hLnXBcYFCi9dRPcsBk8M9B/1TYW/5ul82v6G1tFfjJrvgKi6j9tBGzTXUu\n/MjAtPINU6OSYKa/h1kycSWCC0sGfQM86G6GEy+WroTsyn9pT+U3xHddiqdrFUHY\nGSRZ4CYaDkRWQh90Z46DQQKBgG1EgUQdNfKJDM7bdOsEn+nd+1JNkNLahqyy3M/B\n63pg2RytW2N7XYQrkjD6Ciy3TkuiHie/kFAEekcV7d9bqn+n+VsytjEBwN2SorOv\np6W68XAzx4tBWGzvVNNePjCPO7uT5qObnk3g9xOJRK9sRsGWtEmJ9hP1LUaYHTP/\nkRHFAoGBALgn/8XTHEOPEW9NEjXty5lYpS9sfODnLupuL6ECoTUoNTn6T0xv1Wei\nVskFoHL354+oDFOlZyWGLPI+b6PbN1yIRuVd6jKKFn8UrcIh/QViShc+GZmoKQ+T\nuGXwNNGCoIb2ZqLCNLg1EWKdqt5aj2CCKUXDz03VgQSy3Vb4ysdQ\n-----END RSA PRIVATE KEY-----'
p6
S'ssh-rsa AAAAB3NzaC1yc2EAAAADAQABAAABAQDRSHgUvb6l47WsP+Tyrua0S8Gotf4jVZ+Goj1/L4ktv8GMHOodFgn8VIUP+5XHj6t8dZblWZr+ZRdtDIlXNlqZZ0sMFBjUP8l7CCMZgqG5RsJh9ZTK/d31dILSm1u+jx+nmNew9HD1OIObH2Wojkn3dZU+wqje2R2rFPUxYzNlQndDW8wqdPNXrddX5MlEGNpaRUDw/nII8dI95UJfUDVEvd3j1gJhxtMelyuRatqXbGsNeAjcTM31J8AMv2kH6fSX0aCemGO/QjPEZ4RWfcLsT0Ym9a4DNLriFHZSPvYzT20xiTwLCeAA52MgKn5hlCFScMAJL8i82OlBDlAZBahR'
p7
tp8
s.