(dp0
Vjin@securemail.com
p1
(S'-----BEGIN RSA PRIVATE KEY-----\nMIIEogIBAAKCAQEAvvjyxLZcG/uUScYBEMm/u2ZPI8SNheqR02pVUNoQA7TPitfm\nejiIFB2BQQ2G5lTAUIhyaNyJMyJbeqwc8ZHHXMThy5RJoe1FyFMxuRgjUk+lZZEn\nQojQ5Y6jxAuFrIuA92GjH+gGk7BIQqFbRAONu33XnujOpTtDzikUo98ZpjiLP0BP\njzH1ihBg2FHvlD8emjW1shyjrqdrmCG9gHdzY1C2f6dYD4js0QpOXE9iLU1KpA3D\ntiO/IUqPCQs2S2KaJycvTpUYC1UddWy7crZxyYrKzVTnpHuCouRFmY+i4BxqpuRx\ng7r9YjRYw+uvsWp5oSfm9/l+CvQMruIbrYiTqQIDAQABAoIBABmsyJ7P0aRld3NP\nrpb+OMvOHne1lj1Z4w8kbaH4H00QQxLsoezuqsThjp4bXnabEFwDbDZS6BM63Eeq\n2h1UNxRu19iR8DBYARjErpuu9hi74oW8NSYJ1OP4AGZ8EhW3j7gypUbF4BR9D8n9\nfZKwU57QdWvE6vtl82DFPyQk+4LQPV8QtzU6HpZ4GiiKSVL250zrWO3UBPXGymq5\nOylzZ289DJGBOuVRnvtJyikyeBYoN2UUD7zOZKbLBkBDDokOXas/P6PXZ5i4QpTQ\nkxBNlJ8ZfF8twCJo89MluHSWzwNM487AQP7Xl4DQ3lm/ZdzM56zzHbHy7srDsXFB\nA1AbVp0CgYEAwoUJ3Eg4zrMerSvHMYRZQzgFSJF6+GEs7agjJj8RySPhy+VV+kHW\nVBMeP9qcdipOkmGh49KBHwb2HZ1/hDpaJrIrNEqDuRyjpKzbqR/2zsHwq53TlDng\nM0xQ6XiBbs98EmssyK6/4gtAeXBAt60rHuBe6YQWr1BdOcsrJhGIG8cCgYEA+1Tl\nlVwlAB8u0IGsa69fNdXsgETzhadhcPbVIh3Yz8v0zjq77VE2d3odhgmghanJ4epJ\nGgCR4GyfMwClGF1N3tMugn6tS0myRs6xU2FJRUeinwGnSoVkeiH4kY0wYhWRhhAT\nXPe2jpZeNRP8zEEuhJ/9EPJIxIKsjPTm2p07dQ8CgYAkjtZclSJADr/8MdcdAk+4\nZ2XuzpC676B/BfOdM4tHLzw3kuGGyCrc4D72J0Lynl7n+ftwEtb7mtZUmI4nrsPU\ns/WUvVBmUPCceXRLI9vB3gc6ac4i9IGjgntOdbx1s/8Qgx4GlXkwpYa3jBZNrvkE\ns4yC/LU6u7LZsspoPDFFbwKBgDBweVsjCkKOwAARrgCHKUt/8nf6UhEFZINYH1XW\n+M172q/QpB2mFGBMmdoWiuiYA7/V3sbzKypc5QX4btlWSkbS3tjpv06OYpzBA241\nhuCiYNZShEKZmPbtCzJKSvPsgkKbYI//ciDjHD8Qnh1jxqprB2Q3vgyZvtXf8Ypa\n2XXDAoGAFXcIePo47itPk2MRls5eiffkuLqXh7tCbHYWTgtf7dvDrNN9cQdUz2gA\n5ioaa7l8br4XRch1MCYHjm4kyBtlSOtMmZfqUY1OCFuKkzAWUJs5rOBxDNVqV+ly\nteiBoj7RCDujqRMVk+0jyg8Qy53yLPVaPhOq55EDJtHBdK0oKzU=\n-----END RSA PRIVATE KEY-----'
p2
S'ssh-rsa AAAAB3NzaC1yc2EAAAADAQABAAABAQC++PLEtlwb+5RJxgEQyb+7Zk8jxI2F6pHTalVQ2hADtM+K1+Z6OIgUHYFBDYbmVMBQiHJo3IkzIlt6rBzxkcdcxOHLlEmh7UXIUzG5GCNST6VlkSdCiNDljqPEC4Wsi4D3YaMf6AaTsEhCoVtEA427fdee6M6lO0POKRSj3xmmOIs/QE+PMfWKEGDYUe+UPx6aNbWyHKOup2uYIb2Ad3NjULZ/p1gPiOzRCk5cT2ItTUqkDcO2I78hSo8JCzZLYponJy9OlRgLVR11bLtytnHJisrNVOeke4Ki5EWZj6LgHGqm5HGDuv1iNFjD66+xanmhJ+b3+X4K9Ayu4hutiJOp'
p3
tp4
sVjin2@securemail.com
p5
(S'-----BEGIN RSA PRIVATE KEY-----\nMIIEowIBAAKCAQEA0Uh4FL2+peO1rD/k8q7mtEvBqLX+I1WfhqI9fy+JLb/BjBzq\nHRYJ/FSFD/uVx4+rfHWW5Vma/mUXbQyJVzZamWdLDBQY1D/JewgjGYKhuUbCYfWU\nyv3d9XSC0ptbvo8fp5jXsPRw9TiDmx9lqI5J93WVPsKo3tkdqxT1MWMzZUJ3Q1vM\nKnTzV63XV+TJRBjaWkVA8P5yCPHSPeVCX1A1RL3d49YCYcbTHpcrkWral2xrDXgI\n3EzN9SfADL9pB+n0l9Ggnphjv0IzxGeEVn3C7E9GJvWuAzS64hR2Uj72M09tMYk8\nCwngAOdjICp+YZQhUnDACS/IvNjpQQ5QGQWoUQIDAQABAoIBAHEGlGOPPiFVY05N\ni5ZNQydoKoS1FTV8DpWllVTVFV7xytOi4gUnW+k8tEg3dWK7gr/Kud3PkNeHPSmV\nta62GiPzFyLEz8wBTwz1Dg++7xyizGQfP2aJyI/Bhs27PccigNQAxaw5t6+X/+uM\n/1gS0Humsx2b/5uq4kz9Gpa7now2aMA541pjmDRRSeVCpROCXRM3va4RZ57N10nq\nTzjHjQNo4VULph/e7XMnsTeT5X+otdkrXRBpz85w6UkZsKEQoyHmtKc0w1vqAkVD\nGmWa/8Gf450xAzz5dFNmdoEGCJSFxghg3wuSe1i3Y/gwiouHF+JsOThUl8TyOUVx\nNXxnQ8kCgYEA2geU8OVQLQ5LaTdOyxveEVEByXTnPg6vX98cki6oZa79NJtet5j/\nrcp3IkAqWKlTsPtHt1VmZY29lErMV8Yzzf01FO9pNWYQT1Ae7MHiFC/rt67hxPLF\no7KHXNHXkdv3KWhbC7jVAtkCjRBE3AG8fzAYO4lGRM54IuCvP1frZMcCgYEA9brw\nvOPa0ks5rb5cFYSnvKgTrhC32OKnx0zg1nkUb38ktyCXYhPcpZTHWCV8L3MfNgdc\nD6bRzpo9+ughx3nbuziQYD6O8KliDCdJehvS3AYJVtrfyYsgk14rI23EpBK7NNPD\nRtdPIIOZ7XwyvuouQiShbWw9eUX0HwoQuhBiQicCgYAWCW4kawkPhMJagByWqtpn\nJajok8hLnXBcYFCi9dRPcsBk8M9B/1TYW/5ul82v6G1tFfjJrvgKi6j9tBGzTXUu\n/MjAtPINU6OSYKa/h1kycSWCC0sGfQM86G6GEy+WroTsyn9pT+U3xHddiqdrFUHY\nGSRZ4CYaDkRWQh90Z46DQQKBgG1EgUQdNfKJDM7bdOsEn+nd+1JNkNLahqyy3M/B\n63pg2RytW2N7XYQrkjD6Ciy3TkuiHie/kFAEekcV7d9bqn+n+VsytjEBwN2SorOv\np6W68XAzx4tBWGzvVNNePjCPO7uT5qObnk3g9xOJRK9sRsGWtEmJ9hP1LUaYHTP/\nkRHFAoGBALgn/8XTHEOPEW9NEjXty5lYpS9sfODnLupuL6ECoTUoNTn6T0xv1Wei\nVskFoHL354+oDFOlZyWGLPI+b6PbN1yIRuVd6jKKFn8UrcIh/QViShc+GZmoKQ+T\nuGXwNNGCoIb2ZqLCNLg1EWKdqt5aj2CCKUXDz03VgQSy3Vb4ysdQ\n-----END RSA PRIVATE KEY-----'
p6
S'ssh-rsa AAAAB3NzaC1yc2EAAAADAQABAAABAQDRSHgUvb6l47WsP+Tyrua0S8Gotf4jVZ+Goj1/L4ktv8GMHOodFgn8VIUP+5XHj6t8dZblWZr+ZRdtDIlXNlqZZ0sMFBjUP8l7CCMZgqG5RsJh9ZTK/d31dILSm1u+jx+nmNew9HD1OIObH2Wojkn3dZU+wqje2R2rFPUxYzNlQndDW8wqdPNXrddX5MlEGNpaRUDw/nII8dI95UJfUDVEvd3j1gJhxtMelyuRatqXbGsNeAjcTM31J8AMv2kH6fSX0aCemGO/QjPEZ4RWfcLsT0Ym9a4DNLriFHZSPvYzT20xiTwLCeAA52MgKn5hlCFScMAJL8i82OlBDlAZBahR'
p7
tp8
sVmohit@securemail.com
p9
(S'-----BEGIN RSA PRIVATE KEY-----\nMIIEpAIBAAKCAQEAtQqkHGiwTl8IK6Z03lvn4zKC/luUkkE+HHGjGA+aVgEyUydJ\nG+AmiJyFijsGFEaUBwH1kU0b2TexCe2RiUVIzkoF57az1rn5BSXQN1480FRkoCNx\nI4ZMnEwsCG1DR91l15LGcfyJ1XODxyd3zVY032FEydoKKuKKv+f8Gxx4g2eBeo48\nrSQxoMFmGA0iVdW2nesdvLLn3YDnI5XzCfcp7K9QGUOgIlccfvjPKWXl+VK/uKdR\nTfouKVoS5/lIvovQtwFB8bOdEEpQhx0kuoMjgkszUuKydoC+zxkM6qyabyl8fw5c\nfeRGwkdHfDzkLnPGREQk40wyspAS+TrKkHkcgwIDAQABAoIBAGbSDVTJLGDGXliU\nKEnlfrStinI1xxKtlT4IWC2hJvFzqoZJiJ8ZVik+ZCWW0iQP1aCJP1PvrEJY++Z8\nk6yXufrXVbU9MbRhWQnQaQoZLobPd3rvxiD79GTMajG7BHw7RM0DYkt4tzuQaKZi\nRwtKy6qWjr/pYt7qXQ0TDz7Ck7tkxP58lu9NJNtLTZlpgsx5JR4b8/l1javwSHpW\nAsiNjBfsUtc0xQgq/7cU9qOtVv39Fms6iBXPGcRzG5sEB30A7zmEtHwTu4QJ9ede\nPihbTgAC+0nSCP7SxfKIB4BXrXrOkbj+jDaKXNwu/VVqg37yvnPdtXxnBa+xoP4u\nRBizLlECgYEAtvCIV6XxM6djTDnQuQqq+R1Wh7KLR1HOolx8k7Ij0IVxxxjIXM4t\nnVdyeKWOi1ulFTmFgrJxTYzBMk7dS2dqcL3nNzUpFjikWCdoO+KF94FJg/BqwjRP\nPR4o7YFZro+qJLiBWUPphhpSTXTkcbgGflLhT5H6HTmCqlyXPt6gKmkCgYEA/VgO\n8ymvIs8MEd8DLerX3Xf9UHlxA0RMPzBMlYCNygnUX+j4BnzitDPdparqE+VPfemL\n2rJKy0edj45AchBchA7WD7XuFhMt+tc6jlrQ5ZRfCvUhGaZ+lo5yHthKKsgCYDQ1\njzlpW/Qy5PA+b4zTi3qlXfc89F1qQTXFqiuvugsCgYApa+cDKYCmuHTkUobvDvpN\nc5YfHY8ps908qAJREtnHIh/z+6mKUejEIoO5y4quBS8o0iBnym2bKI6qDG9Q3nac\nVnNe7buC24pip3GTdaPtualipXIWzO9QIF8V/97FhqP4soofIyBiC92syhXbpdZa\njfuUH7JpIZdzaYmZY6ESWQKBgQCZGX8nWdh566+6mQ/9zr8XGq0d1dYDCGIfiZuu\neVq2bwxFza8dlJkYF4Pp2wjMbzaDvACFcFuczzGbkHbHt7WBJMoeAm7YLk0KGslL\nP/yf0PNC1vJi4uf7KigzFbh0dBxjcQmw/Rv7su6SxdClbvBkiQCocYIHlvBgahOD\nDBWNEwKBgQCij70SqjT7Gxiz/bObRYxWspZUI6JGNlGNtfZqTZM5DMQZitS43LAx\ntVvK7Ne7246jpA2OmSwfbw7IEhs9tSnzkmAzCVfc4swcpJnOsK1g/0VYoGMEeVSs\nnYQaboH3MSHQVSSZ9Ai8k24m9XzSvNfR/PCmJ8Y6CSIkbwRedfdXNQ==\n-----END RSA PRIVATE KEY-----'
p10
S'ssh-rsa AAAAB3NzaC1yc2EAAAADAQABAAABAQC1CqQcaLBOXwgrpnTeW+fjMoL+W5SSQT4ccaMYD5pWATJTJ0kb4CaInIWKOwYURpQHAfWRTRvZN7EJ7ZGJRUjOSgXntrPWufkFJdA3XjzQVGSgI3EjhkycTCwIbUNH3WXXksZx/InVc4PHJ3fNVjTfYUTJ2goq4oq/5/wbHHiDZ4F6jjytJDGgwWYYDSJV1bad6x28sufdgOcjlfMJ9ynsr1AZQ6AiVxx++M8pZeX5Ur+4p1FN+i4pWhLn+Ui+i9C3AUHxs50QSlCHHSS6gyOCSzNS4rJ2gL7PGQzqrJpvKXx/Dlx95EbCR0d8POQuc8ZERCTjTDKykBL5OsqQeRyD'
p11
tp12
sVmohittest@securemail.com
p13
(S'-----BEGIN RSA PRIVATE KEY-----\nMIIEowIBAAKCAQEAtZEQPUbXgTqw6K60qIVxtOOivRqZ4XGyVOk2RnEKvJquGY2l\nHxO/ZR0YoqNlSQ8G+LKFXUz6HgYSHs7oXshPLu9SqCEWZZpBR+ctlPGTEwci3l67\nLavuAIjrLPICYhdwQ1+1Kvq2Q26MDjvKjIypa+mgy9+/4260q7qGhMp6e25pra7S\n+ZC5eF/caRluxale/7KgNvT33ILSwHz49nPSQJRcCY+Jb6wILDccZLBhJZjp9cQa\n/Qn8J6gWGmCVNNPpVHislIO57gN9DTARjAv8cBOQdZi3ehY/M5Ydhb30OLs9EZtj\nxTMy0+Dh7RAn7Y5HK3wZy2TdgUppUzWxXg92pwIDAQABAoIBAQCp94BCPJzkxrJx\nP4qy7yjAcxAXAl3m425TenVqf8vTPuGX3jci3nOfDhvPtDHOsJiQG14pNzQ1Au3X\nlU2F3PHzN+oipca3mi1eSBUthu9tMpL7o6aJXJdSPNoamvqMJPDcwS1xbH1Opp/J\ne0NjSxIWiQATmgOhvjK3R8dBa+I4xE+PMoPIHoKXBTmaze4xx8aTRdpG/jYi4P3i\nWpvHoak4XeWBJ1NsR5Fd6pfJOffxQW3wJehn+XSJTnNOQ/j9B1jm69zf012aiVdU\nyhSfWDWHxKTvsEXv5wJyHYtsKJW6na7tOFoMDjSotKd13nOdtkZIKqN/jvq29tZJ\nCN/UHXShAoGBAMHan48cBrGNV3Hbdvj60VOO9SUf6NsDzRbj6sRVlTOnkV0dBy9u\na5gC2MxO1UaUwMpE31DjcLrT7B6/fn5RW+pG6AqMn1892ffxHz0DnpGOzSAtaXCN\nqUcsj5p9mI8+e8wc2Jt7xPiK7K7rKVzAt+F11hOfvK6kX+m5S8kE7JGJAoGBAO/G\nCCrTeSUYm9aAwEIIz1BR/ChoNLFCZtTtEXdoluky0vNxxjtC8Z2lpGzUBvJLGl/L\nhEVQdoKvsrvF6NxbYnkwaa9gbdVAXHQVir6cja2C0cPHI/7TVcAEBWU9SmHmvye8\nm0tTvH1FXkEAMOmnBne+Et5HJ1Fyeod63ynMW6qvAoGACLwaHm+r2Yo923KBHNzo\nW7SAVUjnzB6SuipQ5MHadDZjtWdecIOwM2xFaodO0txXB4Ys7c8hwDlWVVhZkcWG\nt7q0L+2ALOFzldl2h+BG39YoZf/F1X18mClo2xQ3sJSnLV5LYE4mZPCVk5gjB/vj\nDTSrDb1P2iqr67MeuBMRuckCgYBiFzbiJk+KQI4Ia/W7ThVZ+6BX+4GK/upIs4+Q\ntSX/0v4AAAyj09g6sTgaGYeZ+eWZSQ4cuTUyc6SAMw/3jh80Cv1BdQaZ1lG8X8+5\n+Rvw3vLn0AFGz7hl7H80kqVqdda/7+XsJB6ZdRaBKw3XmLAJrqXTb3KDXH0KDddc\nJzFdGwKBgC3yl8hG3BQS9WoY1xDBIdlujWj321peI5D9mIRkL3Z38PeBMfN+UkbZ\n2H+BLHT/m4f7rRwnNmwHO+7+h4lEcMbFhmLZekJzpbG4u+DW1tNKULHN2akAX7Oo\n8RDaUjCvP5xd5Oe3AuaXZb6KN3ySy97eepXCTatnqMYzK+6TWOwc\n-----END RSA PRIVATE KEY-----'
p14
S'ssh-rsa AAAAB3NzaC1yc2EAAAADAQABAAABAQC1kRA9RteBOrDorrSohXG046K9GpnhcbJU6TZGcQq8mq4ZjaUfE79lHRiio2VJDwb4soVdTPoeBhIezuheyE8u71KoIRZlmkFH5y2U8ZMTByLeXrstq+4AiOss8gJiF3BDX7Uq+rZDbowOO8qMjKlr6aDL37/jbrSruoaEynp7bmmtrtL5kLl4X9xpGW7FqV7/sqA29PfcgtLAfPj2c9JAlFwJj4lvrAgsNxxksGElmOn1xBr9CfwnqBYaYJU00+lUeKyUg7nuA30NMBGMC/xwE5B1mLd6Fj8zlh2FvfQ4uz0Rm2PFMzLT4OHtECftjkcrfBnLZN2BSmlTNbFeD3an'
p15
tp16
s.